target datalayout = "e-m:e-p270:32:32-p271:32:32-p272:64:64-i64:64-i128:128-f80:128-n8:16:32:64-S128"
target triple = "x86_64-pc-linux-gnu"

%"class.grpc_core::Timeout" = type <{ i16, i8, i8 }>
%"class.grpc_core::Duration" = type { i64 }

@.str = private unnamed_addr constant [36 x i8] c"return Duration::NegativeInfinity()\00", align 1
@.str.1 = private unnamed_addr constant [130 x i8] c"generated/home/dtcxzyw/WorkSpace/Projects/compilers/llvm-opt-benchmark/bench/grpc/grpc/src/core/lib/transport/timeout_encoding.cc\00", align 1

; Function Attrs: mustprogress nounwind uwtable
define linkonce_odr noundef i64 @_ZNSt14numeric_limitsIlE3minEv() #5 comdat align 2 {
  ret i64 -9223372036854775808
}

; Function Attrs: mustprogress nounwind uwtable
define linkonce_odr noundef i64 @_ZNSt14numeric_limitsIlE3maxEv() #5 comdat align 2 {
  ret i64 9223372036854775807
}

; Function Attrs: inlinehint mustprogress nounwind uwtable
define linkonce_odr noundef i64 @_ZN9grpc_core11time_detail9MillisMulEll(i64 noundef %0, i64 noundef %1) #9 comdat {
  %3 = alloca i64, align 8
  %4 = alloca i64, align 8
  store i64 %0, ptr %3, align 8, !tbaa !3
  store i64 %1, ptr %4, align 8, !tbaa !3
  %5 = load i64, ptr %3, align 8, !tbaa !3
  %6 = call noundef i64 @_ZNSt14numeric_limitsIlE3maxEv() #3
  %7 = load i64, ptr %4, align 8, !tbaa !3
  %8 = sdiv i64 %6, %7
  %9 = icmp sge i64 %5, %8
  br i1 %9, label %10, label %12

10:                                               ; preds = %2
  %11 = call noundef i64 @_ZNSt14numeric_limitsIlE3maxEv() #3
  br label %26

12:                                               ; preds = %2
  %13 = load i64, ptr %3, align 8, !tbaa !3
  %14 = call noundef i64 @_ZNSt14numeric_limitsIlE3minEv() #3
  %15 = load i64, ptr %4, align 8, !tbaa !3
  %16 = sdiv i64 %14, %15
  %17 = icmp sle i64 %13, %16
  br i1 %17, label %18, label %20

18:                                               ; preds = %12
  %19 = call noundef i64 @_ZNSt14numeric_limitsIlE3minEv() #3
  br label %24

20:                                               ; preds = %12
  %21 = load i64, ptr %3, align 8, !tbaa !3
  %22 = load i64, ptr %4, align 8, !tbaa !3
  %23 = mul nsw i64 %21, %22
  br label %24

24:                                               ; preds = %20, %18
  %25 = phi i64 [ %19, %18 ], [ %23, %20 ]
  br label %26

26:                                               ; preds = %24, %10
  %27 = phi i64 [ %11, %10 ], [ %25, %24 ]
  ret i64 %27
}

; Function Attrs: mustprogress nounwind uwtable
define linkonce_odr void @_ZN9grpc_core8DurationC2El(ptr noundef nonnull align 8 dereferenceable(8) %0, i64 noundef %1) unnamed_addr #5 comdat align 2 {
  %3 = alloca ptr, align 8
  %4 = alloca i64, align 8
  store ptr %0, ptr %3, align 8, !tbaa !7
  store i64 %1, ptr %4, align 8, !tbaa !3
  %5 = load ptr, ptr %3, align 8
  %6 = getelementptr inbounds nuw %"class.grpc_core::Duration", ptr %5, i32 0, i32 0
  %7 = load i64, ptr %4, align 8, !tbaa !3
  store i64 %7, ptr %6, align 8, !tbaa !10
  ret void
}

; Function Attrs: mustprogress uwtable
define linkonce_odr i64 @_ZN9grpc_core8Duration5HoursEl(i64 noundef %0) #4 comdat align 2 {
  %2 = alloca %"class.grpc_core::Duration", align 8
  %3 = alloca i64, align 8
  store i64 %0, ptr %3, align 8, !tbaa !3
  %4 = load i64, ptr %3, align 8, !tbaa !3
  %5 = call noundef i64 @_ZN9grpc_core11time_detail9MillisMulEll(i64 noundef %4, i64 noundef 60)
  %6 = call i64 @_ZN9grpc_core8Duration7MinutesEl(i64 noundef %5)
  %7 = getelementptr inbounds nuw %"class.grpc_core::Duration", ptr %2, i32 0, i32 0
  store i64 %6, ptr %7, align 8
  %8 = getelementptr inbounds nuw %"class.grpc_core::Duration", ptr %2, i32 0, i32 0
  %9 = load i64, ptr %8, align 8
  ret i64 %9
}

; Function Attrs: mustprogress uwtable
define linkonce_odr i64 @_ZN9grpc_core8Duration7MinutesEl(i64 noundef %0) #4 comdat align 2 {
  %2 = alloca %"class.grpc_core::Duration", align 8
  %3 = alloca i64, align 8
  store i64 %0, ptr %3, align 8, !tbaa !3
  %4 = load i64, ptr %3, align 8, !tbaa !3
  %5 = call noundef i64 @_ZN9grpc_core11time_detail9MillisMulEll(i64 noundef %4, i64 noundef 60)
  %6 = call i64 @_ZN9grpc_core8Duration7SecondsEl(i64 noundef %5)
  %7 = getelementptr inbounds nuw %"class.grpc_core::Duration", ptr %2, i32 0, i32 0
  store i64 %6, ptr %7, align 8
  %8 = getelementptr inbounds nuw %"class.grpc_core::Duration", ptr %2, i32 0, i32 0
  %9 = load i64, ptr %8, align 8
  ret i64 %9
}

; Function Attrs: mustprogress uwtable
define linkonce_odr i64 @_ZN9grpc_core8Duration7SecondsEl(i64 noundef %0) #4 comdat align 2 {
  %2 = alloca %"class.grpc_core::Duration", align 8
  %3 = alloca i64, align 8
  store i64 %0, ptr %3, align 8, !tbaa !3
  %4 = load i64, ptr %3, align 8, !tbaa !3
  %5 = call noundef i64 @_ZN9grpc_core11time_detail9MillisMulEll(i64 noundef %4, i64 noundef 1000)
  %6 = call i64 @_ZN9grpc_core8Duration12MillisecondsEl(i64 noundef %5)
  %7 = getelementptr inbounds nuw %"class.grpc_core::Duration", ptr %2, i32 0, i32 0
  store i64 %6, ptr %7, align 8
  %8 = getelementptr inbounds nuw %"class.grpc_core::Duration", ptr %2, i32 0, i32 0
  %9 = load i64, ptr %8, align 8
  ret i64 %9
}

; Function Attrs: mustprogress uwtable
define linkonce_odr i64 @_ZN9grpc_core8Duration12MillisecondsEl(i64 noundef %0) #4 comdat align 2 {
  %2 = alloca %"class.grpc_core::Duration", align 8
  %3 = alloca i64, align 8
  store i64 %0, ptr %3, align 8, !tbaa !3
  %4 = load i64, ptr %3, align 8, !tbaa !3
  call void @_ZN9grpc_core8DurationC2El(ptr noundef nonnull align 8 dereferenceable(8) %2, i64 noundef %4)
  %5 = getelementptr inbounds nuw %"class.grpc_core::Duration", ptr %2, i32 0, i32 0
  %6 = load i64, ptr %5, align 8
  ret i64 %6
}

; Function Attrs: mustprogress uwtable
define linkonce_odr i64 @_ZN9grpc_core8Duration4ZeroEv() #4 comdat align 2 {
  %1 = alloca %"class.grpc_core::Duration", align 8
  call void @_ZN9grpc_core8DurationC2El(ptr noundef nonnull align 8 dereferenceable(8) %1, i64 noundef 0)
  %2 = getelementptr inbounds nuw %"class.grpc_core::Duration", ptr %1, i32 0, i32 0
  %3 = load i64, ptr %2, align 8
  ret i64 %3
}

; Function Attrs: mustprogress uwtable
define i64 @_ZNK9grpc_core7Timeout10AsDurationEv(ptr noundef nonnull align 2 dereferenceable(3) %0) #4 align 2 {
  %2 = alloca %"class.grpc_core::Duration", align 8
  %3 = alloca ptr, align 8
  %4 = alloca i64, align 8
  %5 = alloca i32, align 4
  store ptr %0, ptr %3, align 8, !tbaa !12
  %6 = load ptr, ptr %3, align 8
  call void @llvm.lifetime.start.p0(i64 8, ptr %4) #3
  %7 = getelementptr inbounds nuw %"class.grpc_core::Timeout", ptr %6, i32 0, i32 0
  %8 = load i16, ptr %7, align 2, !tbaa !16
  %9 = zext i16 %8 to i64
  store i64 %9, ptr %4, align 8, !tbaa !3
  %10 = getelementptr inbounds nuw %"class.grpc_core::Timeout", ptr %6, i32 0, i32 1
  %11 = load i8, ptr %10, align 2, !tbaa !20
  switch i8 %11, label %61 [
    i8 0, label %12
    i8 1, label %15
    i8 2, label %19
    i8 3, label %24
    i8 4, label %29
    i8 5, label %33
    i8 6, label %38
    i8 7, label %43
    i8 8, label %47
    i8 9, label %52
    i8 10, label %57
  ]

12:                                               ; preds = %1
  %13 = call i64 @_ZN9grpc_core8Duration4ZeroEv()
  %14 = getelementptr inbounds nuw %"class.grpc_core::Duration", ptr %2, i32 0, i32 0
  store i64 %13, ptr %14, align 8
  store i32 1, ptr %5, align 4
  br label %65

15:                                               ; preds = %1
  %16 = load i64, ptr %4, align 8, !tbaa !3
  %17 = call i64 @_ZN9grpc_core8Duration12MillisecondsEl(i64 noundef %16)
  %18 = getelementptr inbounds nuw %"class.grpc_core::Duration", ptr %2, i32 0, i32 0
  store i64 %17, ptr %18, align 8
  store i32 1, ptr %5, align 4
  br label %65

19:                                               ; preds = %1
  %20 = load i64, ptr %4, align 8, !tbaa !3
  %21 = mul nsw i64 %20, 10
  %22 = call i64 @_ZN9grpc_core8Duration12MillisecondsEl(i64 noundef %21)
  %23 = getelementptr inbounds nuw %"class.grpc_core::Duration", ptr %2, i32 0, i32 0
  store i64 %22, ptr %23, align 8
  store i32 1, ptr %5, align 4
  br label %65

24:                                               ; preds = %1
  %25 = load i64, ptr %4, align 8, !tbaa !3
  %26 = mul nsw i64 %25, 100
  %27 = call i64 @_ZN9grpc_core8Duration12MillisecondsEl(i64 noundef %26)
  %28 = getelementptr inbounds nuw %"class.grpc_core::Duration", ptr %2, i32 0, i32 0
  store i64 %27, ptr %28, align 8
  store i32 1, ptr %5, align 4
  br label %65

29:                                               ; preds = %1
  %30 = load i64, ptr %4, align 8, !tbaa !3
  %31 = call i64 @_ZN9grpc_core8Duration7SecondsEl(i64 noundef %30)
  %32 = getelementptr inbounds nuw %"class.grpc_core::Duration", ptr %2, i32 0, i32 0
  store i64 %31, ptr %32, align 8
  store i32 1, ptr %5, align 4
  br label %65

33:                                               ; preds = %1
  %34 = load i64, ptr %4, align 8, !tbaa !3
  %35 = mul nsw i64 %34, 10
  %36 = call i64 @_ZN9grpc_core8Duration7SecondsEl(i64 noundef %35)
  %37 = getelementptr inbounds nuw %"class.grpc_core::Duration", ptr %2, i32 0, i32 0
  store i64 %36, ptr %37, align 8
  store i32 1, ptr %5, align 4
  br label %65

38:                                               ; preds = %1
  %39 = load i64, ptr %4, align 8, !tbaa !3
  %40 = mul nsw i64 %39, 100
  %41 = call i64 @_ZN9grpc_core8Duration7SecondsEl(i64 noundef %40)
  %42 = getelementptr inbounds nuw %"class.grpc_core::Duration", ptr %2, i32 0, i32 0
  store i64 %41, ptr %42, align 8
  store i32 1, ptr %5, align 4
  br label %65

43:                                               ; preds = %1
  %44 = load i64, ptr %4, align 8, !tbaa !3
  %45 = call i64 @_ZN9grpc_core8Duration7MinutesEl(i64 noundef %44)
  %46 = getelementptr inbounds nuw %"class.grpc_core::Duration", ptr %2, i32 0, i32 0
  store i64 %45, ptr %46, align 8
  store i32 1, ptr %5, align 4
  br label %65

47:                                               ; preds = %1
  %48 = load i64, ptr %4, align 8, !tbaa !3
  %49 = mul nsw i64 %48, 10
  %50 = call i64 @_ZN9grpc_core8Duration7MinutesEl(i64 noundef %49)
  %51 = getelementptr inbounds nuw %"class.grpc_core::Duration", ptr %2, i32 0, i32 0
  store i64 %50, ptr %51, align 8
  store i32 1, ptr %5, align 4
  br label %65

52:                                               ; preds = %1
  %53 = load i64, ptr %4, align 8, !tbaa !3
  %54 = mul nsw i64 %53, 100
  %55 = call i64 @_ZN9grpc_core8Duration7MinutesEl(i64 noundef %54)
  %56 = getelementptr inbounds nuw %"class.grpc_core::Duration", ptr %2, i32 0, i32 0
  store i64 %55, ptr %56, align 8
  store i32 1, ptr %5, align 4
  br label %65

57:                                               ; preds = %1
  %58 = load i64, ptr %4, align 8, !tbaa !3
  %59 = call i64 @_ZN9grpc_core8Duration5HoursEl(i64 noundef %58)
  %60 = getelementptr inbounds nuw %"class.grpc_core::Duration", ptr %2, i32 0, i32 0
  store i64 %59, ptr %60, align 8
  store i32 1, ptr %5, align 4
  br label %65

61:                                               ; preds = %1
  br label %62

62:                                               ; preds = %61
  call void @gpr_unreachable_code(ptr noundef @.str, ptr noundef @.str.1, i32 noundef 89) #12
  unreachable

63:                                               ; No predecessors!
  br label %64

64:                                               ; preds = %63
  unreachable

65:                                               ; preds = %57, %52, %47, %43, %38, %33, %29, %24, %19, %15, %12
  call void @llvm.lifetime.end.p0(i64 8, ptr %4) #3
  %66 = getelementptr inbounds nuw %"class.grpc_core::Duration", ptr %2, i32 0, i32 0
  %67 = load i64, ptr %66, align 8
  ret i64 %67
}