; Function Attrs: mustprogress uwtable
define range(i64 0, 393210000001) i64 @_ZNK9grpc_core7Timeout10AsDurationEv(ptr noundef nonnull readonly align 2 captures(none) dereferenceable(3) %0) local_unnamed_addr #4 align 2 {
  %2 = load i16, ptr %0, align 2, !tbaa !3
  %3 = zext i16 %2 to i64
  %4 = getelementptr inbounds nuw i8, ptr %0, i64 2
  %5 = load i8, ptr %4, align 2, !tbaa !9
  switch i8 %5, label %25 [
    i8 0, label %_ZN9grpc_core8Duration7MinutesEl.exit
    i8 1, label %6
    i8 2, label %7
    i8 3, label %9
    i8 4, label %11
    i8 5, label %13
    i8 6, label %15
    i8 7, label %17
    i8 8, label %19
    i8 9, label %21
    i8 10, label %23
  ]

6:                                                ; preds = %1
  br label %_ZN9grpc_core8Duration7MinutesEl.exit

7:                                                ; preds = %1
  %8 = mul nuw nsw i64 %3, 10
  br label %_ZN9grpc_core8Duration7MinutesEl.exit

9:                                                ; preds = %1
  %10 = mul nuw nsw i64 %3, 100
  br label %_ZN9grpc_core8Duration7MinutesEl.exit

11:                                               ; preds = %1
  %12 = mul nuw nsw i64 %3, 1000
  br label %_ZN9grpc_core8Duration7MinutesEl.exit

13:                                               ; preds = %1
  %14 = mul nuw nsw i64 %3, 10000
  br label %_ZN9grpc_core8Duration7MinutesEl.exit

15:                                               ; preds = %1
  %16 = mul nuw nsw i64 %3, 100000
  br label %_ZN9grpc_core8Duration7MinutesEl.exit

17:                                               ; preds = %1
  %18 = mul nuw nsw i64 %3, 60000
  br label %_ZN9grpc_core8Duration7MinutesEl.exit

19:                                               ; preds = %1
  %20 = mul nuw nsw i64 %3, 600000
  br label %_ZN9grpc_core8Duration7MinutesEl.exit

21:                                               ; preds = %1
  %22 = mul nuw nsw i64 %3, 6000000
  br label %_ZN9grpc_core8Duration7MinutesEl.exit

23:                                               ; preds = %1
  %24 = mul nuw nsw i64 %3, 3600000
  br label %_ZN9grpc_core8Duration7MinutesEl.exit

25:                                               ; preds = %1
  tail call void @gpr_unreachable_code(ptr noundef nonnull @.str, ptr noundef nonnull @.str.1, i32 noundef 89) #10
  unreachable

_ZN9grpc_core8Duration7MinutesEl.exit:            ; preds = %21, %19, %1, %23, %17, %15, %13, %11, %9, %7, %6
  %.sroa.0.0 = phi i64 [ %24, %23 ], [ %18, %17 ], [ %16, %15 ], [ %14, %13 ], [ %12, %11 ], [ %10, %9 ], [ %8, %7 ], [ %3, %6 ], [ 0, %1 ], [ %20, %19 ], [ %22, %21 ]
  ret i64 %.sroa.0.0
}